/*
 * Intel ACPI Component Architecture
 * AML/ASL+ Disassembler version 20251212 (64-bit version)
 * Copyright (c) 2000 - 2025 Intel Corporation
 * 
 * Disassembly of HDLT.aml
 *
 * ACPI Data Table [HDLT]
 *
 * Format: [HexOffset DecimalOffset ByteLength]  FieldName : FieldValue (in hex)
 */

[000h 0000 004h]                   Signature : "HDLT"    
[004h 0004 004h]                Table Length : 00002026
[008h 0008 001h]                    Revision : 01
[009h 0009 001h]                    Checksum : B8
[00Ah 0010 006h]                      Oem ID : "HONOR"
[010h 0016 008h]                Oem Table ID : "PTL"
[018h 0024 004h]                Oem Revision : 00000002
[01Ch 0028 004h]             Asl Compiler ID : "ACPI"
[020h 0032 004h]       Asl Compiler Revision : 00040000


**** Unknown ACPI table signature [HDLT]


Raw Table Data: Length 8230 (0x2026)

    0000: 48 44 4C 54 26 20 00 00 01 B8 48 4F 4E 4F 52 00  // HDLT& ....HONOR.
    0010: 50 54 4C 00 00 00 00 00 02 00 00 00 41 43 50 49  // PTL.........ACPI
    0020: 00 00 04 00 17 00 00 00 01 00 00 00 43 68 69 70  // ............Chip
    0030: 73 65 74 00 00 00 00 00 00 00 00 00 00 00 00 00  // set.............
    0040: 00 00 00 00 00 00 00 00 00 00 50 43 49 2F 56 45  // ..........PCI/VE
    0050: 4E 5F 38 30 38 36 26 44 45 56 5F 45 34 30 32 3B  // N_8086&DEV_E402;
    0060: 50 43 49 2F 56 45 4E 5F 38 30 38 36 26 44 45 56  // PCI/VEN_8086&DEV
    0070: 5F 45 33 30 32 00 00 00 00 00 00 00 00 00 00 00  // _E302...........
    0080: 00 00 00 00 00 00 00 00 00 00 00 00 00 00 00 00  // ................
    0090: 00 00 00 00 00 00 00 00 00 00 00 00 00 00 00 00  // ................
    00A0: 00 00 00 00 00 00 00 00 00 00 00 00 00 00 00 00  // ................
    00B0: 00 00 00 00 00 00 00 00 00 00 00 00 00 00 00 00  // ................
    00C0: 00 00 00 00 00 00 00 00 00 00 00 00 00 00 00 00  // ................
    00D0: 00 00 00 00 00 00 00 00 00 00 00 00 00 00 00 00  // ................
    00E0: 00 00 00 00 00 00 00 00 00 00 00 00 00 00 00 00  // ................
    00F0: 00 00 00 00 00 00 00 00 00 00 00 00 00 00 00 00  // ................
    0100: 00 00 00 00 00 00 00 00 00 00 00 00 00 00 00 00  // ................
    0110: 00 00 02 00 00 00 4D 45 00 00 00 00 00 00 00 00  // ......ME........
    0120: 00 00 00 00 00 00 00 00 00 00 00 00 00 00 00 00  // ................
    0130: 00 00 00 00 50 43 49 2F 56 45 4E 5F 38 30 38 36  // ....PCI/VEN_8086
    0140: 26 44 45 56 5F 45 34 37 30 3B 50 43 49 2F 56 45  // &DEV_E470;PCI/VE
    0150: 4E 5F 38 30 38 36 26 44 45 56 5F 45 33 37 30 00  // N_8086&DEV_E370.
    0160: 00 00 00 00 00 00 00 00 00 00 00 00 00 00 00 00  // ................
    0170: 00 00 00 00 00 00 00 00 00 00 00 00 00 00 00 00  // ................
    0180: 00 00 00 00 00 00 00 00 00 00 00 00 00 00 00 00  // ................
    0190: 00 00 00 00 00 00 00 00 00 00 00 00 00 00 00 00  // ................
    01A0: 00 00 00 00 00 00 00 00 00 00 00 00 00 00 00 00  // ................
    01B0: 00 00 00 00 00 00 00 00 00 00 00 00 00 00 00 00  // ................
    01C0: 00 00 00 00 00 00 00 00 00 00 00 00 00 00 00 00  // ................
    01D0: 00 00 00 00 00 00 00 00 00 00 00 00 00 00 00 00  // ................
    01E0: 00 00 00 00 00 00 00 00 00 00 00 00 00 00 00 00  // ................
    01F0: 00 00 00 00 00 00 00 00 00 00 00 00 03 00 00 00  // ................
    0200: 47 72 61 70 68 69 63 73 00 00 00 00 00 00 00 00  // Graphics........
    0210: 00 00 00 00 00 00 00 00 00 00 00 00 00 00 50 43  // ..............PC
    0220: 49 2F 56 45 4E 5F 38 30 38 36 26 44 45 56 5F 42  // I/VEN_8086&DEV_B
    0230: 30 38 30 3B 50 43 49 2F 56 45 4E 5F 38 30 38 36  // 080;PCI/VEN_8086
    0240: 26 44 45 56 5F 42 30 38 33 3B 50 43 49 2F 56 45  // &DEV_B083;PCI/VE
    0250: 4E 5F 38 30 38 36 26 44 45 56 5F 42 30 38 31 3B  // N_8086&DEV_B081;
    0260: 50 43 49 2F 56 45 4E 5F 38 30 38 36 26 44 45 56  // PCI/VEN_8086&DEV
    0270: 5F 42 30 38 32 3B 50 43 49 2F 56 45 4E 5F 38 30  // _B082;PCI/VEN_80
    0280: 38 36 26 44 45 56 5F 42 30 41 30 00 00 00 00 00  // 86&DEV_B0A0.....
    0290: 00 00 00 00 00 00 00 00 00 00 00 00 00 00 00 00  // ................
    02A0: 00 00 00 00 00 00 00 00 00 00 00 00 00 00 00 00  // ................
    02B0: 00 00 00 00 00 00 00 00 00 00 00 00 00 00 00 00  // ................
    02C0: 00 00 00 00 00 00 00 00 00 00 00 00 00 00 00 00  // ................
    02D0: 00 00 00 00 00 00 00 00 00 00 00 00 00 00 00 00  // ................
    02E0: 00 00 00 00 00 00 04 00 00 00 53 65 72 69 61 6C  // ..........Serial
    02F0: 49 4F 00 00 00 00 00 00 00 00 00 00 00 00 00 00  // IO..............
    0300: 00 00 00 00 00 00 00 00 41 43 50 49 2F 56 45 4E  // ........ACPI/VEN
    0310: 5F 49 4E 54 43 26 44 45 56 5F 31 30 42 43 3B 41  // _INTC&DEV_10BC;A
    0320: 43 50 49 2F 56 45 4E 5F 49 4E 54 43 26 44 45 56  // CPI/VEN_INTC&DEV
    0330: 5F 31 30 42 42 00 00 00 00 00 00 00 00 00 00 00  // _10BB...........
    0340: 00 00 00 00 00 00 00 00 00 00 00 00 00 00 00 00  // ................
    0350: 00 00 00 00 00 00 00 00 00 00 00 00 00 00 00 00  // ................
    0360: 00 00 00 00 00 00 00 00 00 00 00 00 00 00 00 00  // ................
    0370: 00 00 00 00 00 00 00 00 00 00 00 00 00 00 00 00  // ................
    0380: 00 00 00 00 00 00 00 00 00 00 00 00 00 00 00 00  // ................
    0390: 00 00 00 00 00 00 00 00 00 00 00 00 00 00 00 00  // ................
    03A0: 00 00 00 00 00 00 00 00 00 00 00 00 00 00 00 00  // ................
    03B0: 00 00 00 00 00 00 00 00 00 00 00 00 00 00 00 00  // ................
    03C0: 00 00 00 00 00 00 00 00 00 00 00 00 00 00 00 00  // ................
    03D0: 06 00 00 00 44 50 54 46 00 00 00 00 00 00 00 00  // ....DPTF........
    03E0: 00 00 00 00 00 00 00 00 00 00 00 00 00 00 00 00  // ................
    03F0: 00 00 41 43 50 49 2F 56 45 4E 5F 49 4E 54 43 26  // ..ACPI/VEN_INTC&
    0400: 44 45 56 5F 31 30 44 34 3B 41 43 50 49 2F 56 45  // DEV_10D4;ACPI/VE
    0410: 4E 5F 49 4E 54 43 26 44 45 56 5F 31 30 44 35 3B  // N_INTC&DEV_10D5;
    0420: 41 43 50 49 2F 56 45 4E 5F 49 4E 54 43 26 44 45  // ACPI/VEN_INTC&DE
    0430: 56 5F 31 30 44 36 00 00 00 00 00 00 00 00 00 00  // V_10D6..........
    0440: 00 00 00 00 00 00 00 00 00 00 00 00 00 00 00 00  // ................
    0450: 00 00 00 00 00 00 00 00 00 00 00 00 00 00 00 00  // ................
    0460: 00 00 00 00 00 00 00 00 00 00 00 00 00 00 00 00  // ................
    0470: 00 00 00 00 00 00 00 00 00 00 00 00 00 00 00 00  // ................
    0480: 00 00 00 00 00 00 00 00 00 00 00 00 00 00 00 00  // ................
    0490: 00 00 00 00 00 00 00 00 00 00 00 00 00 00 00 00  // ................
    04A0: 00 00 00 00 00 00 00 00 00 00 00 00 00 00 00 00  // ................
    04B0: 00 00 00 00 00 00 00 00 00 00 0C 00 00 00 57 44  // ..............WD
    04C0: 54 00 00 00 00 00 00 00 00 00 00 00 00 00 00 00  // T...............
    04D0: 00 00 00 00 00 00 00 00 00 00 00 00 41 43 50 49  // ............ACPI
    04E0: 2F 56 45 4E 5F 57 44 54 26 44 45 56 5F 30 30 30  // /VEN_WDT&DEV_000
    04F0: 31 00 00 00 00 00 00 00 00 00 00 00 00 00 00 00  // 1...............
    0500: 00 00 00 00 00 00 00 00 00 00 00 00 00 00 00 00  // ................
    0510: 00 00 00 00 00 00 00 00 00 00 00 00 00 00 00 00  // ................
    0520: 00 00 00 00 00 00 00 00 00 00 00 00 00 00 00 00  // ................
    0530: 00 00 00 00 00 00 00 00 00 00 00 00 00 00 00 00  // ................
    0540: 00 00 00 00 00 00 00 00 00 00 00 00 00 00 00 00  // ................
    0550: 00 00 00 00 00 00 00 00 00 00 00 00 00 00 00 00  // ................
    0560: 00 00 00 00 00 00 00 00 00 00 00 00 00 00 00 00  // ................
    0570: 00 00 00 00 00 00 00 00 00 00 00 00 00 00 00 00  // ................
    0580: 00 00 00 00 00 00 00 00 00 00 00 00 00 00 00 00  // ................
    0590: 00 00 00 00 00 00 00 00 00 00 00 00 00 00 00 00  // ................
    05A0: 00 00 00 00 0E 00 00 00 41 75 64 69 6F 00 00 00  // ........Audio...
    05B0: 00 00 00 00 00 00 00 00 00 00 00 00 00 00 00 00  // ................
    05C0: 00 00 00 00 00 00 46 55 4E 43 5F 30 31 26 56 45  // ......FUNC_01&VE
    05D0: 4E 5F 31 30 45 43 26 44 45 56 5F 30 32 35 36 00  // N_10EC&DEV_0256.
    05E0: 00 00 00 00 00 00 00 00 00 00 00 00 00 00 00 00  // ................
    05F0: 00 00 00 00 00 00 00 00 00 00 00 00 00 00 00 00  // ................
    0600: 00 00 00 00 00 00 00 00 00 00 00 00 00 00 00 00  // ................
    0610: 00 00 00 00 00 00 00 00 00 00 00 00 00 00 00 00  // ................
    0620: 00 00 00 00 00 00 00 00 00 00 00 00 00 00 00 00  // ................
    0630: 00 00 00 00 00 00 00 00 00 00 00 00 00 00 00 00  // ................
    0640: 00 00 00 00 00 00 00 00 00 00 00 00 00 00 00 00  // ................
    0650: 00 00 00 00 00 00 00 00 00 00 00 00 00 00 00 00  // ................
    0660: 00 00 00 00 00 00 00 00 00 00 00 00 00 00 00 00  // ................
    0670: 00 00 00 00 00 00 00 00 00 00 00 00 00 00 00 00  // ................
    0680: 00 00 00 00 00 00 00 00 00 00 00 00 00 00 0F 00  // ................
    0690: 00 00 57 69 46 69 00 00 00 00 00 00 00 00 00 00  // ..WiFi..........
    06A0: 00 00 00 00 00 00 00 00 00 00 00 00 00 00 00 00  // ................
    06B0: 50 43 49 2F 56 45 4E 5F 38 30 38 36 26 44 45 56  // PCI/VEN_8086&DEV
    06C0: 5F 45 34 34 30 3B 50 43 49 2F 56 45 4E 5F 38 30  // _E440;PCI/VEN_80
    06D0: 38 36 26 44 45 56 5F 45 33 34 30 00 00 00 00 00  // 86&DEV_E340.....
    06E0: 00 00 00 00 00 00 00 00 00 00 00 00 00 00 00 00  // ................
    06F0: 00 00 00 00 00 00 00 00 00 00 00 00 00 00 00 00  // ................
    0700: 00 00 00 00 00 00 00 00 00 00 00 00 00 00 00 00  // ................
    0710: 00 00 00 00 00 00 00 00 00 00 00 00 00 00 00 00  // ................
    0720: 00 00 00 00 00 00 00 00 00 00 00 00 00 00 00 00  // ................
    0730: 00 00 00 00 00 00 00 00 00 00 00 00 00 00 00 00  // ................
    0740: 00 00 00 00 00 00 00 00 00 00 00 00 00 00 00 00  // ................
    0750: 00 00 00 00 00 00 00 00 00 00 00 00 00 00 00 00  // ................
    0760: 00 00 00 00 00 00 00 00 00 00 00 00 00 00 00 00  // ................
    0770: 00 00 00 00 00 00 00 00 10 00 00 00 42 54 00 00  // ............BT..
    0780: 00 00 00 00 00 00 00 00 00 00 00 00 00 00 00 00  // ................
    0790: 00 00 00 00 00 00 00 00 00 00 50 43 49 2F 56 45  // ..........PCI/VE
    07A0: 4E 5F 38 30 38 36 26 44 45 56 5F 45 34 37 36 3B  // N_8086&DEV_E476;
    07B0: 50 43 49 2F 56 45 4E 5F 38 30 38 36 26 44 45 56  // PCI/VEN_8086&DEV
    07C0: 5F 45 33 37 36 00 00 00 00 00 00 00 00 00 00 00  // _E376...........
    07D0: 00 00 00 00 00 00 00 00 00 00 00 00 00 00 00 00  // ................
    07E0: 00 00 00 00 00 00 00 00 00 00 00 00 00 00 00 00  // ................
    07F0: 00 00 00 00 00 00 00 00 00 00 00 00 00 00 00 00  // ................
    0800: 00 00 00 00 00 00 00 00 00 00 00 00 00 00 00 00  // ................
    0810: 00 00 00 00 00 00 00 00 00 00 00 00 00 00 00 00  // ................
    0820: 00 00 00 00 00 00 00 00 00 00 00 00 00 00 00 00  // ................
    0830: 00 00 00 00 00 00 00 00 00 00 00 00 00 00 00 00  // ................
    0840: 00 00 00 00 00 00 00 00 00 00 00 00 00 00 00 00  // ................
    0850: 00 00 00 00 00 00 00 00 00 00 00 00 00 00 00 00  // ................
    0860: 00 00 12 00 00 00 47 6F 6F 64 69 78 46 69 6E 67  // ......GoodixFing
    0870: 65 72 50 72 69 6E 74 00 00 00 00 00 00 00 00 00  // erPrint.........
    0880: 00 00 00 00 55 53 42 2F 56 49 44 5F 32 37 43 36  // ....USB/VID_27C6
    0890: 26 50 49 44 5F 36 46 39 34 00 00 00 00 00 00 00  // &PID_6F94.......
    08A0: 00 00 00 00 00 00 00 00 00 00 00 00 00 00 00 00  // ................
    08B0: 00 00 00 00 00 00 00 00 00 00 00 00 00 00 00 00  // ................
    08C0: 00 00 00 00 00 00 00 00 00 00 00 00 00 00 00 00  // ................
    08D0: 00 00 00 00 00 00 00 00 00 00 00 00 00 00 00 00  // ................
    08E0: 00 00 00 00 00 00 00 00 00 00 00 00 00 00 00 00  // ................
    08F0: 00 00 00 00 00 00 00 00 00 00 00 00 00 00 00 00  // ................
    0900: 00 00 00 00 00 00 00 00 00 00 00 00 00 00 00 00  // ................
    0910: 00 00 00 00 00 00 00 00 00 00 00 00 00 00 00 00  // ................
    0920: 00 00 00 00 00 00 00 00 00 00 00 00 00 00 00 00  // ................
    0930: 00 00 00 00 00 00 00 00 00 00 00 00 00 00 00 00  // ................
    0940: 00 00 00 00 00 00 00 00 00 00 00 00 12 00 00 00  // ................
    0950: 45 67 69 73 46 69 6E 67 65 72 50 72 69 6E 74 00  // EgisFingerPrint.
    0960: 00 00 00 00 00 00 00 00 00 00 00 00 00 00 55 53  // ..............US
    0970: 42 2F 56 49 44 5F 31 43 37 41 26 50 49 44 5F 30  // B/VID_1C7A&PID_0
    0980: 35 41 41 00 00 00 00 00 00 00 00 00 00 00 00 00  // 5AA.............
    0990: 00 00 00 00 00 00 00 00 00 00 00 00 00 00 00 00  // ................
    09A0: 00 00 00 00 00 00 00 00 00 00 00 00 00 00 00 00  // ................
    09B0: 00 00 00 00 00 00 00 00 00 00 00 00 00 00 00 00  // ................
    09C0: 00 00 00 00 00 00 00 00 00 00 00 00 00 00 00 00  // ................
    09D0: 00 00 00 00 00 00 00 00 00 00 00 00 00 00 00 00  // ................
    09E0: 00 00 00 00 00 00 00 00 00 00 00 00 00 00 00 00  // ................
    09F0: 00 00 00 00 00 00 00 00 00 00 00 00 00 00 00 00  // ................
    0A00: 00 00 00 00 00 00 00 00 00 00 00 00 00 00 00 00  // ................
    0A10: 00 00 00 00 00 00 00 00 00 00 00 00 00 00 00 00  // ................
    0A20: 00 00 00 00 00 00 00 00 00 00 00 00 00 00 00 00  // ................
    0A30: 00 00 00 00 00 00 29 00 00 00 4D 6F 6E 69 74 6F  // ......)...Monito
    0A40: 72 00 00 00 00 00 00 00 00 00 00 00 00 00 00 00  // r...............
    0A50: 00 00 00 00 00 00 00 00 4D 4F 4E 49 54 4F 52 2F  // ........MONITOR/
    0A60: 45 44 4F 34 31 37 39 00 00 00 00 00 00 00 00 00  // EDO4179.........
    0A70: 00 00 00 00 00 00 00 00 00 00 00 00 00 00 00 00  // ................
    0A80: 00 00 00 00 00 00 00 00 00 00 00 00 00 00 00 00  // ................
    0A90: 00 00 00 00 00 00 00 00 00 00 00 00 00 00 00 00  // ................
    0AA0: 00 00 00 00 00 00 00 00 00 00 00 00 00 00 00 00  // ................
    0AB0: 00 00 00 00 00 00 00 00 00 00 00 00 00 00 00 00  // ................
    0AC0: 00 00 00 00 00 00 00 00 00 00 00 00 00 00 00 00  // ................
    0AD0: 00 00 00 00 00 00 00 00 00 00 00 00 00 00 00 00  // ................
    0AE0: 00 00 00 00 00 00 00 00 00 00 00 00 00 00 00 00  // ................
    0AF0: 00 00 00 00 00 00 00 00 00 00 00 00 00 00 00 00  // ................
    0B00: 00 00 00 00 00 00 00 00 00 00 00 00 00 00 00 00  // ................
    0B10: 00 00 00 00 00 00 00 00 00 00 00 00 00 00 00 00  // ................
    0B20: 34 00 00 00 4E 46 43 00 00 00 00 00 00 00 00 00  // 4...NFC.........
    0B30: 00 00 00 00 00 00 00 00 00 00 00 00 00 00 00 00  // ................
    0B40: 00 00 41 43 50 49 2F 56 45 4E 5F 4E 54 41 47 26  // ..ACPI/VEN_NTAG&
    0B50: 44 45 56 5F 30 30 30 31 00 00 00 00 00 00 00 00  // DEV_0001........
    0B60: 00 00 00 00 00 00 00 00 00 00 00 00 00 00 00 00  // ................
    0B70: 00 00 00 00 00 00 00 00 00 00 00 00 00 00 00 00  // ................
    0B80: 00 00 00 00 00 00 00 00 00 00 00 00 00 00 00 00  // ................
    0B90: 00 00 00 00 00 00 00 00 00 00 00 00 00 00 00 00  // ................
    0BA0: 00 00 00 00 00 00 00 00 00 00 00 00 00 00 00 00  // ................
    0BB0: 00 00 00 00 00 00 00 00 00 00 00 00 00 00 00 00  // ................
    0BC0: 00 00 00 00 00 00 00 00 00 00 00 00 00 00 00 00  // ................
    0BD0: 00 00 00 00 00 00 00 00 00 00 00 00 00 00 00 00  // ................
    0BE0: 00 00 00 00 00 00 00 00 00 00 00 00 00 00 00 00  // ................
    0BF0: 00 00 00 00 00 00 00 00 00 00 00 00 00 00 00 00  // ................
    0C00: 00 00 00 00 00 00 00 00 00 00 37 00 00 00 50 50  // ..........7...PP
    0C10: 4D 00 00 00 00 00 00 00 00 00 00 00 00 00 00 00  // M...............
    0C20: 00 00 00 00 00 00 00 00 00 00 00 00 53 57 43 2F  // ............SWC/
    0C30: 56 49 44 38 30 38 36 5F 50 50 4D 5F 31 30 30 38  // VID8086_PPM_1008
    0C40: 5F 31 2E 30 00 00 00 00 00 00 00 00 00 00 00 00  // _1.0............
    0C50: 00 00 00 00 00 00 00 00 00 00 00 00 00 00 00 00  // ................
    0C60: 00 00 00 00 00 00 00 00 00 00 00 00 00 00 00 00  // ................
    0C70: 00 00 00 00 00 00 00 00 00 00 00 00 00 00 00 00  // ................
    0C80: 00 00 00 00 00 00 00 00 00 00 00 00 00 00 00 00  // ................
    0C90: 00 00 00 00 00 00 00 00 00 00 00 00 00 00 00 00  // ................
    0CA0: 00 00 00 00 00 00 00 00 00 00 00 00 00 00 00 00  // ................
    0CB0: 00 00 00 00 00 00 00 00 00 00 00 00 00 00 00 00  // ................
    0CC0: 00 00 00 00 00 00 00 00 00 00 00 00 00 00 00 00  // ................
    0CD0: 00 00 00 00 00 00 00 00 00 00 00 00 00 00 00 00  // ................
    0CE0: 00 00 00 00 00 00 00 00 00 00 00 00 00 00 00 00  // ................
    0CF0: 00 00 00 00 38 00 00 00 54 58 54 00 00 00 00 00  // ....8...TXT.....
    0D00: 00 00 00 00 00 00 00 00 00 00 00 00 00 00 00 00  // ................
    0D10: 00 00 00 00 00 00 41 43 50 49 2F 56 45 4E 5F 49  // ......ACPI/VEN_I
    0D20: 4E 54 43 26 44 45 56 5F 31 30 32 35 00 00 00 00  // NTC&DEV_1025....
    0D30: 00 00 00 00 00 00 00 00 00 00 00 00 00 00 00 00  // ................
    0D40: 00 00 00 00 00 00 00 00 00 00 00 00 00 00 00 00  // ................
    0D50: 00 00 00 00 00 00 00 00 00 00 00 00 00 00 00 00  // ................
    0D60: 00 00 00 00 00 00 00 00 00 00 00 00 00 00 00 00  // ................
    0D70: 00 00 00 00 00 00 00 00 00 00 00 00 00 00 00 00  // ................
    0D80: 00 00 00 00 00 00 00 00 00 00 00 00 00 00 00 00  // ................
    0D90: 00 00 00 00 00 00 00 00 00 00 00 00 00 00 00 00  // ................
    0DA0: 00 00 00 00 00 00 00 00 00 00 00 00 00 00 00 00  // ................
    0DB0: 00 00 00 00 00 00 00 00 00 00 00 00 00 00 00 00  // ................
    0DC0: 00 00 00 00 00 00 00 00 00 00 00 00 00 00 00 00  // ................
    0DD0: 00 00 00 00 00 00 00 00 00 00 00 00 00 00 41 00  // ..............A.
    0DE0: 00 00 49 53 53 54 00 00 00 00 00 00 00 00 00 00  // ..ISST..........
    0DF0: 00 00 00 00 00 00 00 00 00 00 00 00 00 00 00 00  // ................
    0E00: 50 43 49 2F 56 45 4E 5F 38 30 38 36 26 44 45 56  // PCI/VEN_8086&DEV
    0E10: 5F 45 34 32 38 3B 50 43 49 2F 56 45 4E 5F 38 30  // _E428;PCI/VEN_80
    0E20: 38 36 26 44 45 56 5F 45 33 32 38 00 00 00 00 00  // 86&DEV_E328.....
    0E30: 00 00 00 00 00 00 00 00 00 00 00 00 00 00 00 00  // ................
    0E40: 00 00 00 00 00 00 00 00 00 00 00 00 00 00 00 00  // ................
    0E50: 00 00 00 00 00 00 00 00 00 00 00 00 00 00 00 00  // ................
    0E60: 00 00 00 00 00 00 00 00 00 00 00 00 00 00 00 00  // ................
    0E70: 00 00 00 00 00 00 00 00 00 00 00 00 00 00 00 00  // ................
    0E80: 00 00 00 00 00 00 00 00 00 00 00 00 00 00 00 00  // ................
    0E90: 00 00 00 00 00 00 00 00 00 00 00 00 00 00 00 00  // ................
    0EA0: 00 00 00 00 00 00 00 00 00 00 00 00 00 00 00 00  // ................
    0EB0: 00 00 00 00 00 00 00 00 00 00 00 00 00 00 00 00  // ................
    0EC0: 00 00 00 00 00 00 00 00 49 00 00 00 69 50 4D 54  // ........I...iPMT
    0ED0: 00 00 00 00 00 00 00 00 00 00 00 00 00 00 00 00  // ................
    0EE0: 00 00 00 00 00 00 00 00 00 00 50 43 49 2F 56 45  // ..........PCI/VE
    0EF0: 4E 5F 38 30 38 36 26 44 45 56 5F 42 30 37 44 00  // N_8086&DEV_B07D.
    0F00: 00 00 00 00 00 00 00 00 00 00 00 00 00 00 00 00  // ................
    0F10: 00 00 00 00 00 00 00 00 00 00 00 00 00 00 00 00  // ................
    0F20: 00 00 00 00 00 00 00 00 00 00 00 00 00 00 00 00  // ................
    0F30: 00 00 00 00 00 00 00 00 00 00 00 00 00 00 00 00  // ................
    0F40: 00 00 00 00 00 00 00 00 00 00 00 00 00 00 00 00  // ................
    0F50: 00 00 00 00 00 00 00 00 00 00 00 00 00 00 00 00  // ................
    0F60: 00 00 00 00 00 00 00 00 00 00 00 00 00 00 00 00  // ................
    0F70: 00 00 00 00 00 00 00 00 00 00 00 00 00 00 00 00  // ................
    0F80: 00 00 00 00 00 00 00 00 00 00 00 00 00 00 00 00  // ................
    0F90: 00 00 00 00 00 00 00 00 00 00 00 00 00 00 00 00  // ................
    0FA0: 00 00 00 00 00 00 00 00 00 00 00 00 00 00 00 00  // ................
    0FB0: 00 00 4A 00 00 00 4E 50 55 00 00 00 00 00 00 00  // ..J...NPU.......
    0FC0: 00 00 00 00 00 00 00 00 00 00 00 00 00 00 00 00  // ................
    0FD0: 00 00 00 00 50 43 49 2F 56 45 4E 5F 38 30 38 36  // ....PCI/VEN_8086
    0FE0: 26 44 45 56 5F 42 30 33 45 00 00 00 00 00 00 00  // &DEV_B03E.......
    0FF0: 00 00 00 00 00 00 00 00 00 00 00 00 00 00 00 00  // ................
    1000: 00 00 00 00 00 00 00 00 00 00 00 00 00 00 00 00  // ................
    1010: 00 00 00 00 00 00 00 00 00 00 00 00 00 00 00 00  // ................
    1020: 00 00 00 00 00 00 00 00 00 00 00 00 00 00 00 00  // ................
    1030: 00 00 00 00 00 00 00 00 00 00 00 00 00 00 00 00  // ................
    1040: 00 00 00 00 00 00 00 00 00 00 00 00 00 00 00 00  // ................
    1050: 00 00 00 00 00 00 00 00 00 00 00 00 00 00 00 00  // ................
    1060: 00 00 00 00 00 00 00 00 00 00 00 00 00 00 00 00  // ................
    1070: 00 00 00 00 00 00 00 00 00 00 00 00 00 00 00 00  // ................
    1080: 00 00 00 00 00 00 00 00 00 00 00 00 00 00 00 00  // ................
    1090: 00 00 00 00 00 00 00 00 00 00 00 00 4E 00 00 00  // ............N...
    10A0: 4D 45 50 00 00 00 00 00 00 00 00 00 00 00 00 00  // MEP.............
    10B0: 00 00 00 00 00 00 00 00 00 00 00 00 00 00 53 57  // ..............SW
    10C0: 43 2F 4D 45 50 5F 43 41 4D 26 56 45 4E 5F 38 30  // C/MEP_CAM&VEN_80
    10D0: 38 36 5F 44 45 56 5F 42 30 33 45 3B 53 57 43 2F  // 86_DEV_B03E;SWC/
    10E0: 56 45 4E 5F 38 30 38 36 5F 44 45 56 5F 42 30 33  // VEN_8086_DEV_B03
    10F0: 45 00 00 00 00 00 00 00 00 00 00 00 00 00 00 00  // E...............
    1100: 00 00 00 00 00 00 00 00 00 00 00 00 00 00 00 00  // ................
    1110: 00 00 00 00 00 00 00 00 00 00 00 00 00 00 00 00  // ................
    1120: 00 00 00 00 00 00 00 00 00 00 00 00 00 00 00 00  // ................
    1130: 00 00 00 00 00 00 00 00 00 00 00 00 00 00 00 00  // ................
    1140: 00 00 00 00 00 00 00 00 00 00 00 00 00 00 00 00  // ................
    1150: 00 00 00 00 00 00 00 00 00 00 00 00 00 00 00 00  // ................
    1160: 00 00 00 00 00 00 00 00 00 00 00 00 00 00 00 00  // ................
    1170: 00 00 00 00 00 00 00 00 00 00 00 00 00 00 00 00  // ................
    1180: 00 00 00 00 00 00 62 00 00 00 49 47 43 4C 00 00  // ......b...IGCL..
    1190: 00 00 00 00 00 00 00 00 00 00 00 00 00 00 00 00  // ................
    11A0: 00 00 00 00 00 00 00 00 53 57 43 2F 56 49 44 38  // ........SWC/VID8
    11B0: 30 38 36 5F 49 50 46 45 46 5F 49 47 43 4C 5F 50  // 086_IPFEF_IGCL_P
    11C0: 52 4F 56 49 44 45 52 5F 31 2E 30 00 00 00 00 00  // ROVIDER_1.0.....
    11D0: 00 00 00 00 00 00 00 00 00 00 00 00 00 00 00 00  // ................
    11E0: 00 00 00 00 00 00 00 00 00 00 00 00 00 00 00 00  // ................
    11F0: 00 00 00 00 00 00 00 00 00 00 00 00 00 00 00 00  // ................
    1200: 00 00 00 00 00 00 00 00 00 00 00 00 00 00 00 00  // ................
    1210: 00 00 00 00 00 00 00 00 00 00 00 00 00 00 00 00  // ................
    1220: 00 00 00 00 00 00 00 00 00 00 00 00 00 00 00 00  // ................
    1230: 00 00 00 00 00 00 00 00 00 00 00 00 00 00 00 00  // ................
    1240: 00 00 00 00 00 00 00 00 00 00 00 00 00 00 00 00  // ................
    1250: 00 00 00 00 00 00 00 00 00 00 00 00 00 00 00 00  // ................
    1260: 00 00 00 00 00 00 00 00 00 00 00 00 00 00 00 00  // ................
    1270: EC 03 00 00 48 44 4D 49 5F 48 41 52 44 49 44 00  // ....HDMI_HARDID.
    1280: 00 00 00 00 00 00 00 00 00 00 00 00 00 00 00 00  // ................
    1290: 00 00 55 49 44 34 31 35 32 00 00 00 00 00 00 00  // ..UID4152.......
    12A0: 00 00 00 00 00 00 00 00 00 00 00 00 00 00 00 00  // ................
    12B0: 00 00 00 00 00 00 00 00 00 00 00 00 00 00 00 00  // ................
    12C0: 00 00 00 00 00 00 00 00 00 00 00 00 00 00 00 00  // ................
    12D0: 00 00 00 00 00 00 00 00 00 00 00 00 00 00 00 00  // ................
    12E0: 00 00 00 00 00 00 00 00 00 00 00 00 00 00 00 00  // ................
    12F0: 00 00 00 00 00 00 00 00 00 00 00 00 00 00 00 00  // ................
    1300: 00 00 00 00 00 00 00 00 00 00 00 00 00 00 00 00  // ................
    1310: 00 00 00 00 00 00 00 00 00 00 00 00 00 00 00 00  // ................
    1320: 00 00 00 00 00 00 00 00 00 00 00 00 00 00 00 00  // ................
    1330: 00 00 00 00 00 00 00 00 00 00 00 00 00 00 00 00  // ................
    1340: 00 00 00 00 00 00 00 00 00 00 00 00 00 00 00 00  // ................
    1350: 00 00 00 00 00 00 00 00 00 00 ED 03 00 00 46 6F  // ..............Fo
    1360: 72 63 65 70 61 64 43 6F 6D 00 00 00 00 00 00 00  // rcepadCom.......
    1370: 00 00 00 00 00 00 00 00 00 00 00 00 41 43 50 49  // ............ACPI
    1380: 2F 50 4E 50 30 35 30 31 2F 53 45 52 49 41 4C 49  // /PNP0501/SERIALI
    1390: 4F 55 41 52 54 31 00 00 00 00 00 00 00 00 00 00  // OUART1..........
    13A0: 00 00 00 00 00 00 00 00 00 00 00 00 00 00 00 00  // ................
    13B0: 00 00 00 00 00 00 00 00 00 00 00 00 00 00 00 00  // ................
    13C0: 00 00 00 00 00 00 00 00 00 00 00 00 00 00 00 00  // ................
    13D0: 00 00 00 00 00 00 00 00 00 00 00 00 00 00 00 00  // ................
    13E0: 00 00 00 00 00 00 00 00 00 00 00 00 00 00 00 00  // ................
    13F0: 00 00 00 00 00 00 00 00 00 00 00 00 00 00 00 00  // ................
    1400: 00 00 00 00 00 00 00 00 00 00 00 00 00 00 00 00  // ................
    1410: 00 00 00 00 00 00 00 00 00 00 00 00 00 00 00 00  // ................
    1420: 00 00 00 00 00 00 00 00 00 00 00 00 00 00 00 00  // ................
    1430: 00 00 00 00 00 00 00 00 00 00 00 00 00 00 00 00  // ................
    1440: 00 00 00 00 EE 03 00 00 47 6F 6F 64 69 78 46 6F  // ........GoodixFo
    1450: 72 63 65 50 61 64 00 00 00 00 00 00 00 00 00 00  // rcePad..........
    1460: 00 00 00 00 00 00 48 49 44 2F 56 49 44 5F 32 37  // ......HID/VID_27
    1470: 43 36 26 50 49 44 5F 30 46 39 41 00 00 00 00 00  // C6&PID_0F9A.....
    1480: 00 00 00 00 00 00 00 00 00 00 00 00 00 00 00 00  // ................
    1490: 00 00 00 00 00 00 00 00 00 00 00 00 00 00 00 00  // ................
    14A0: 00 00 00 00 00 00 00 00 00 00 00 00 00 00 00 00  // ................
    14B0: 00 00 00 00 00 00 00 00 00 00 00 00 00 00 00 00  // ................
    14C0: 00 00 00 00 00 00 00 00 00 00 00 00 00 00 00 00  // ................
    14D0: 00 00 00 00 00 00 00 00 00 00 00 00 00 00 00 00  // ................
    14E0: 00 00 00 00 00 00 00 00 00 00 00 00 00 00 00 00  // ................
    14F0: 00 00 00 00 00 00 00 00 00 00 00 00 00 00 00 00  // ................
    1500: 00 00 00 00 00 00 00 00 00 00 00 00 00 00 00 00  // ................
    1510: 00 00 00 00 00 00 00 00 00 00 00 00 00 00 00 00  // ................
    1520: 00 00 00 00 00 00 00 00 00 00 00 00 00 00 6E BF  // ..............n.
    1530: FD 7A F3 5F 1B 77 53 A0 15 83 B4 90 25 0D A0 71  // .z._.wS.....%..q
    1540: 8B 0C 40 EC 86 EA BF 4C 36 F8 87 B9 BE CB 8E 6D  // ..@....L6......m
    1550: 74 EF 97 03 3B 1B A0 E9 00 CE 36 08 33 46 E2 01  // t...;.....6.3F..
    1560: 17 8C 8C 18 E3 C3 66 2F A4 81 C6 45 BC 0A A8 B7  // ......f/...E....
    1570: 61 33 EB D3 D0 BB CD 3C 4D 68 89 0A C6 70 7B 64  // a3.....<Mh...p{d
    1580: FF AD 1F 27 77 1C F0 01 5D F8 CB 0D AA 22 9E 31  // ...'w...]....".1
    1590: BD 7E CF 3A 8B 9A 93 F0 D3 76 BF 79 09 81 83 2C  // .~.:.....v.y...,
    15A0: 55 96 88 7D B1 A0 42 21 6B A7 A8 7F 0C A9 21 BD  // U..}..B!k.....!.
    15B0: 59 A6 38 76 8C E5 23 D9 4A 86 A1 76 44 E1 63 FF  // Y.8v..#.J..vD.c.
    15C0: 4B B4 A8 E6 08 61 07 FD 62 05 C9 E5 A2 B2 DB 4C  // K....a..b......L
    15D0: 46 8B ED 94 81 3B C7 05 A4 C3 FF D3 13 03 56 C1  // F....;........V.
    15E0: 2A E7 8E F7 9A 20 1F DD E6 40 7B 33 9D 08 DC 0D  // *.... ...@{3....
    15F0: 73 2A D0 67 C7 AD 09 27 DA 7C 9A D2 92 07 A4 75  // s*.g...'.|.....u
    1600: B0 E9 CE 79 37 5D 8E A0 E2 CE 0C 32 30 34 C4 BB  // ...y7].....204..
    1610: 81 8F 16 39 E0 6C 46 7D 97 BB A7 99 6D 69 2E 51  // ...9.lF}....mi.Q
    1620: D6 D8 AC 83 35 B9 E8 D3 25 D6 B9 6D 02 10 CC 17  // ....5...%..m....
    1630: 1D 77 7C 64 2A 5E 8E 66 0E FD E0 34 C8 DA 9A 41  // .w|d*^.f...4...A
    1640: AF C5 E9 F1 86 F2 EB 03 80 17 6A 1F 66 51 91 E1  // ..........j.fQ..
    1650: 25 3A 43 72 2D 38 CA AB FF 68 91 E4 B9 8E 6F 1F  // %:Cr-8...h....o.
    1660: D2 CD FC CD D0 C5 25 44 07 C2 FB D0 D2 DB 56 1B  // ......%D......V.
    1670: EC D6 A3 77 17 E1 7F CD A2 67 D6 FD BB B2 1D 50  // ...w.....g.....P
    1680: B6 8C 71 A5 81 77 CB 79 76 A5 FE 59 D6 78 C1 8D  // ..q..w.yv..Y.x..
    1690: BB 4A 91 27 AD 8B 1E 16 47 94 77 D0 9A 34 A3 EF  // .J.'....G.w..4..
    16A0: A8 59 09 BF 69 4F 38 30 C8 A7 69 11 BA 49 FD 61  // .Y..iO80..i..I.a
    16B0: 29 FD 63 C6 EC F1 48 A3 87 E8 13 6B 69 9A 63 FF  // ).c...H....ki.c.
    16C0: DD 09 C4 61 D1 CC A1 4A 88 8E 9D 4A 07 C7 00 E1  // ...a...J...J....
    16D0: 94 E5 7E 12 1D 00 D6 D9 25 23 F0 27 6C AC 5B BA  // ..~.....%#.'l.[.
    16E0: 4E 3F A8 C4 AB B6 63 6C 0A DD BE 3F 8F 70 AC 6C  // N?....cl...?.p.l
    16F0: EE 1B 98 08 BE C9 21 A5 80 57 EA 6B 2D D2 B9 79  // ......!..W.k-..y
    1700: 46 B3 DD 4D 94 E3 70 F4 F2 37 27 C6 A5 56 53 03  // F..M..p..7'..VS.
    1710: FF 81 4A 76 C8 D5 3F 18 9F 5A 4C AD FE 0D 89 D9  // ..Jv..?..ZL.....
    1720: 29 57 FC C0 7D 60 92 B5 ED 78 56 BE 26 25 48 14  // )W..}`...xV.&%H.
    1730: 97 31 84 F5 B4 7B DA E0 00 95 39 D1 5D 5E 93 CF  // .1...{....9.]^..
    1740: 49 EF 72 03 03 CC 67 5D 18 0F FE B9 E6 23 F0 21  // I.r...g].....#.!
    1750: 6D 1C 56 22 A2 FE D6 CB 5A 4D EC AB 76 B3 74 A5  // m.V"....ZM..v.t.
    1760: 49 38 77 03 AB F7 9E 83 47 DD 38 FE 87 90 28 82  // I8w.....G.8...(.
    1770: 25 51 2C 9D 24 88 30 47 E3 79 1D DB AE B9 61 CB  // %Q,.$.0G.y....a.
    1780: 6F 1B 7E CF B6 1A A4 D3 E7 2A 30 57 82 29 11 45  // o.~......*0W.).E
    1790: 1A 28 D8 40 C2 96 14 BF 35 F8 A6 C1 36 9D B4 E0  // .(.@....5...6...
    17A0: 37 05 B1 29 89 DD 4E E5 73 89 49 B6 90 ED 7A B9  // 7..)..N.s.I...z.
    17B0: 8A 16 85 49 F7 13 45 4A 75 8F 79 86 11 6C 76 B5  // ...I..EJu.y..lv.
    17C0: EA 76 86 4A EF 0B 85 8A 0A C3 2F 2A 5E C2 C4 6B  // .v.J....../*^..k
    17D0: B0 79 FA FF F0 6C B1 1E 1B D2 A7 A2 1A 86 E6 49  // .y...l.........I
    17E0: A1 68 72 77 B4 28 93 3C E6 50 04 C0 55 64 EC 14  // .hrw.(.<.P..Ud..
    17F0: 04 D4 10 E7 F4 5C E5 D1 4A FC 61 A5 7E 4F B5 4D  // .....\..J.a.~O.M
    1800: CE 1E 46 B1 46 EE 70 44 B3 34 31 6D 01 E5 C7 80  // ..F.F.pD.41m....
    1810: B0 8C 2C AD EF E5 B7 87 30 B7 2D 71 E1 05 C0 87  // ..,.....0.-q....
    1820: 88 B4 ED 6C E1 EB C7 F7 DA D7 0D A9 10 F9 90 13  // ...l............
    1830: 31 E1 54 1E DD 43 FD C5 5F 52 21 85 71 98 9B 18  // 1.T..C.._R!.q...
    1840: 69 B9 96 DC CB 55 4D 75 37 42 CD 47 0D 4B 3C 2F  // i....UMu7B.G.K</
    1850: 94 1E D7 A2 DA 63 85 69 5E 2B 86 0C 57 11 EE FD  // .....c.i^+..W...
    1860: 02 88 63 16 7F C6 A8 44 93 BE D8 DE 62 A4 3F 66  // ..c....D....b.?f
    1870: A9 95 09 87 E8 6A 69 12 1A 37 94 92 00 C6 2C 75  // .....ji..7....,u
    1880: 31 0D CD 43 CE 4C 58 23 1C 27 D2 A7 66 07 AF 08  // 1..C.LX#.'..f...
    1890: 41 B6 3E 2D 02 50 8D B3 54 6F 90 E5 74 15 3F 98  // A.>-.P..To..t.?.
    18A0: C5 32 1A 09 23 71 84 BA 59 8C 43 36 51 47 DE B5  // .2..#q..Y.C6QG..
    18B0: 00 E6 88 64 0B D1 0A 07 A5 70 A4 D1 6E 78 27 4C  // ...d.....p..nx'L
    18C0: CF 29 F6 1A F8 22 95 98 7A 1A 32 5E 4C D9 EB 28  // .)..."..z.2^L..(
    18D0: 71 99 6E 46 AC 1B ED 3F 41 21 EB 87 82 17 9D 5E  // q.nF...?A!.....^
    18E0: C2 2A F3 DB 40 F7 8A 58 7C 3E 77 77 F2 D3 12 09  // .*..@..X|>ww....
    18F0: F8 01 56 8B FD 32 6D 01 00 42 94 94 ED CC EA F1  // ..V..2m..B......
    1900: 3F C6 68 B5 0C C3 E2 8E A9 7E 63 84 0E A4 04 08  // ?.h......~c.....
    1910: A7 52 12 E4 85 A7 5C 14 67 B0 15 F2 BD 17 99 95  // .R....\.g.......
    1920: 4B BE 75 83 BE 9C 85 CD 4D 2B 21 1B 1C 5D A3 A0  // K.u.....M+!..]..
    1930: 99 11 80 CD 12 E8 D6 08 34 52 EA D0 42 03 51 52  // ........4R..B.QR
    1940: 0E 86 3C 71 F7 0D F9 27 76 76 53 1D 76 E0 19 E3  // ..<q...'vvS.v...
    1950: C5 F6 CF 18 96 CC 18 84 CE CE 96 D8 58 CE 68 92  // ............X.h.
    1960: 4E 7D 93 44 74 2E 0F 93 A9 B5 41 64 9B EE 16 78  // N}.Dt.....Ad...x
    1970: 7F 50 F6 4A 22 9B DD D5 22 3E 1D 38 79 0C 01 6F  // .P.J"...">.8y..o
    1980: C7 E8 33 8F 0C B5 AC A4 6F 60 57 D9 1C 07 3A 14  // ..3.....o`W...:.
    1990: 1D 03 C4 C2 84 DB FC F0 2A 25 7D F3 4D 56 B0 9E  // ........*%}.MV..
    19A0: 49 57 66 60 91 CE 54 58 C7 4B 85 53 F1 6C 86 D8  // IWf`..TX.K.S.l..
    19B0: C6 1F 8F F3 A4 6C 2E DA 86 0A 8F 59 A1 3C 04 5A  // .....l.....Y.<.Z
    19C0: D2 0B 2F 53 A1 69 06 F2 6F F1 04 C9 01 FC 4D 9B  // ../S.i..o.....M.
    19D0: D8 FD BC AC C2 D1 54 F5 13 8D E7 2A 1E E3 B5 63  // ......T....*...c
    19E0: 1F 3A 82 92 33 20 DB 7A A9 65 8D 72 97 F1 E0 4A  // .:..3 .z.e.r...J
    19F0: 67 AB FB 04 24 42 7D D7 8B 47 9C 63 1F 79 A4 0E  // g...$B}..G.c.y..
    1A00: 45 89 EA 15 AC CA 39 93 7C 4B 62 ED 7F 60 4D 83  // E.....9.|Kb..`M.
    1A10: 67 72 BB 25 B1 26 3F B5 F6 C1 36 B9 DD C2 58 96  // gr.%.&?...6...X.
    1A20: CF DA FE 60 9B 0C 6E E4 1B 49 83 5F 6F 6D 6C 32  // ...`..n..I._oml2
    1A30: F0 E6 DE 20 84 97 33 E5 0E 5C 2B F7 2A 28 46 18  // ... ..3..\+.*(F.
    1A40: A1 B7 54 AA D0 C3 91 47 2C 8B AF EA 43 EE AC B9  // ..T....G,...C...
    1A50: DE F1 3C 3D DD 52 59 5D 71 D6 45 00 14 B9 16 03  // ..<=.RY]q.E.....
    1A60: 0B 24 92 93 A8 27 F2 F6 80 C8 E1 E7 31 45 29 CE  // .$...'......1E).
    1A70: 34 4F 45 DA 10 A8 26 A7 4F 07 9F 99 C2 B6 B6 51  // 4OE...&.O......Q
    1A80: C8 B3 A2 3D 2F 97 DF 5E E3 9D 44 0C 15 EC 4C 38  // ...=/..^..D...L8
    1A90: EF F7 27 5C 0F 6F 98 20 4F 31 21 69 3E C7 15 61  // ..'\.o. O1!i>..a
    1AA0: 25 3D 71 0A BD DD 0D B5 AF 83 B2 C4 0A C8 8F 8E  // %=q.............
    1AB0: 91 E8 41 9D 90 07 59 F2 22 0E DE A8 69 AB 94 95  // ..A...Y."...i...
    1AC0: 49 30 87 5B A6 31 E8 43 DC B5 3B 02 15 FB 03 06  // I0.[.1.C..;.....
    1AD0: F2 FD 49 43 87 F0 93 5A 70 19 5E 67 3E D0 5A 5F  // ..IC...Zp.^g>.Z_
    1AE0: 38 37 1F 15 35 42 06 CF CF 31 66 83 E5 EB 22 40  // 87..5B...1f..."@
    1AF0: E2 D0 09 8A 9D A0 E0 1B F0 0E 9F 7A 2A 24 5C 3E  // ...........z*$\>
    1B00: 11 23 96 15 61 5C 07 FC FE B6 2B 2B 94 B0 39 5A  // .#..a\....++..9Z
    1B10: 23 1C C6 7D FE 07 6C E1 8E C6 A8 A8 88 AC D9 BA  // #..}..l.........
    1B20: 24 1B FE 45 3F C6 62 EF 64 C7 59 5C BD 14 8F DA  // $..E?.b.d.Y\....
    1B30: 88 A3 3A 7B A4 2F 46 02 C6 65 4C 49 15 BC CA 9F  // ..:{./F..eLI....
    1B40: A2 89 6B 2A 2E A5 12 56 44 18 94 C7 FD 7C EE 53  // ..k*...VD....|.S
    1B50: 32 C4 22 24 4A 61 56 BE F5 A9 19 4A 91 10 8D 30  // 2."$JaV....J...0
    1B60: 29 DF FA FC 8C A7 60 88 4B F0 78 A6 87 41 1E 2B  // ).....`.K.x..A.+
    1B70: 83 1A 3F F0 BD F3 CB BA 2F 94 5B 85 9E 58 D6 E3  // ..?...../.[..X..
    1B80: C5 5C 0D C2 2C 62 47 36 18 1C 75 A6 C6 67 75 8B  // .\..,bG6..u..gu.
    1B90: F8 30 74 C1 CD 5F 2C 4B 36 32 04 D7 4D EC 29 D7  // .0t.._,K62..M.).
    1BA0: 1A D2 63 D6 75 E7 E9 8E D0 E6 CD 49 9E E9 88 06  // ..c.u......I....
    1BB0: E7 C0 74 78 57 64 C4 68 84 B2 6F EB 8B FC 20 AE  // ..txWd.h..o... .
    1BC0: A2 85 5E 52 06 35 4E E2 F2 77 68 A5 EA 9A 4E 2C  // ..^R.5N..wh...N,
    1BD0: C0 CD FD 74 44 16 3A 49 63 E6 E4 29 8E FE 6D 0F  // ...tD.:Ic..)..m.
    1BE0: D9 D4 35 BC 02 50 08 7B FC 65 F2 38 E0 D6 11 A6  // ..5..P.{.e.8....
    1BF0: 9C 41 F3 1B E9 CE 59 66 DA 43 C3 09 69 5F 5D EA  // .A....Yf.C..i_].
    1C00: FE 23 E0 08 71 56 9D A2 56 B0 C9 B6 0A 75 67 D4  // .#..qV..V....ug.
    1C10: FD E4 93 13 DF 5F CE 82 B7 51 C6 B9 72 0D A4 17  // ....._...Q..r...
    1C20: E3 FA 63 E3 58 D8 F2 BE 07 2C E9 01 55 09 C9 9A  // ..c.X....,..U...
    1C30: 4A CB 86 3B 2C DA 07 01 3E 15 20 C8 1B 47 BB E8  // J..;,...>. ..G..
    1C40: D9 58 1A A7 C8 3E 20 26 5E 44 A7 8D C9 37 E6 EB  // .X...> &^D...7..
    1C50: 6D AA 38 FC 32 BB 3A 8C 8E 94 21 0B FD 03 47 4A  // m.8.2.:...!...GJ
    1C60: 60 A7 50 94 71 F8 20 96 9E 82 B0 D4 82 E9 D7 08  // `.P.q. .........
    1C70: F4 42 E6 D7 32 F3 57 DD F2 EE D3 B7 99 F2 0F D0  // .B..2.W.........
    1C80: 32 84 D0 E1 83 42 DA 50 F7 1A 74 39 4D 05 86 E6  // 2....B.P..t9M...
    1C90: F9 D8 02 29 FD 86 02 FB D9 34 05 48 C6 8E DA BA  // ...).....4.H....
    1CA0: 1B 3A 15 3E 45 3E C7 3E AB E2 EF 0F D3 7E 81 46  // .:.>E>.>.....~.F
    1CB0: 0B 9F EC E2 CC 16 7A 06 D1 98 3C DC 4D E0 75 B2  // ......z...<.M.u.
    1CC0: AC 38 D1 DF 25 FF 35 49 A4 58 48 8D C2 CE 5E 1C  // .8..%.5I.XH...^.
    1CD0: 54 64 C9 6A CD F2 27 FC 9B 67 B1 74 0D 01 20 62  // Td.j..'..g.t.. b
    1CE0: A7 97 56 F5 31 0E C0 1B 9D 85 F2 94 15 4C 12 7E  // ..V.1........L.~
    1CF0: 78 71 DD 33 68 75 FB B5 36 2E AF C9 FF A6 45 29  // xq.3hu..6.....E)
    1D00: C2 CB 08 E6 C6 DB 8E C0 D0 6B EA 2C 77 F0 CD EA  // .........k.,w...
    1D10: F8 70 AA F5 71 3A FB BA 4A F1 3E F8 D1 56 F8 DF  // .p..q:..J.>..V..
    1D20: 51 D9 E7 B8 1B 50 A8 E9 45 DD 15 22 2A AC 9D 5A  // Q....P..E.."*..Z
    1D30: 56 57 89 72 C8 28 89 7D F7 6F 80 B7 86 00 F8 3F  // VW.r.(.}.o.....?
    1D40: 7D 7C D0 2B 02 E2 DF 2B B6 17 A2 2E 20 5C 91 F3  // }|.+...+.... \..
    1D50: A6 AD 27 FE 0E D8 E5 D2 07 A6 2F A3 4C 30 F2 90  // ..'......./.L0..
    1D60: BD B6 FF 26 C8 1E D3 E4 45 71 E0 AF 59 CD EB A1  // ...&....Eq..Y...
    1D70: EF 53 B1 BA D1 67 AE F5 C5 F1 E4 AB 79 ED EA A0  // .S...g......y...
    1D80: E7 5B F1 FA D3 65 BE E5 E3 D4 77 7A 6D 4E B7 1A  // .[...e....wzmN..
    1D90: 25 03 41 C4 D8 BF 18 97 59 6E A2 AF C3 E0 C2 6F  // %.A.....Yn.....o
    1DA0: 8E A8 1C 99 32 55 4F C0 3A 39 F6 5A 80 AE 96 53  // ....2UO.:9.Z...S
    1DB0: CB AE 7A E5 E5 52 B9 B0 B4 B7 82 2E 23 0D 8B 4E  // ..z..R......#..N
    1DC0: 23 46 3D A2 DF 68 68 61 67 A0 42 57 55 4F FE 05  // #F=..hhag.BWUO..
    1DD0: 05 68 54 14 E7 57 6E C0 83 44 65 70 6C 76 37 CC  // .hT..Wn..Deplv7.
    1DE0: 4B 26 26 66 74 C4 F2 5C 94 B7 FE 14 75 1D 00 B0  // K&&ft..\....u...
    1DF0: BF 05 A3 85 99 97 64 E7 9D BE B6 5C 37 5F 12 A2  // ......d....\7_..
    1E00: 2F 95 27 01 BD B3 45 C6 0F 8A 34 AA 01 DE F4 B8  // /.'...E...4.....
    1E10: 2A 63 1B E3 7B 97 26 F3 B8 3D 89 17 EC 33 9B D7  // *c..{.&..=...3..
    1E20: 51 18 C0 38 A5 49 D0 05 10 B9 2F 89 66 ED 76 C1  // Q..8.I..../.f.v.
    1E30: 12 11 3A C9 CC ED 26 C4 92 3B 3B 9D C6 4D 73 C4  // ..:...&..;;..Ms.
    1E40: 3A 39 7B 88 C6 E7 76 94 4C 8C 37 CE 7B 4B 76 08  // :9{...v.L.7.{Kv.
    1E50: 8A 86 07 98 F9 FA 63 84 26 E6 64 9D E1 D1 A2 DC  // ......c.&.d.....
    1E60: 2C 20 32 AD 50 53 2E C9 03 93 6B 49 4D 36 B8 C5  // , 2.PS....kIM6..
    1E70: BB 3A AE 04 67 58 EB B4 20 B0 72 50 85 FE FE 83  // .:..gX.. .rP....
    1E80: 89 08 3F 95 EB D4 8F D0 4F 39 C3 64 F0 8C 2A DD  // ..?.....O9.d..*.
    1E90: FC 02 5A B9 3E 60 5D BB 47 31 83 24 F2 8E 3A CD  // ..Z.>`].G1.$..:.
    1EA0: 7C 82 5E BD 1E 40 5C BA F6 60 E7 8E A9 3F C0 A9  // |.^..@\..`...?..
    1EB0: 4D DB 3A 53 47 D1 B7 DE F6 60 E7 8E A9 3F C0 A9  // M.:SG....`...?..
    1EC0: 4D DB 3A 53 47 D1 B7 DE 5A CD E4 3D 52 CA C1 60  // M.:SG...Z..=R..`
    1ED0: 2E 75 41 FE 7C D7 B1 89 A9 3E 7B A2 AE 36 26 87  // .uA.|....>{..6&.
    1EE0: 11 4A B8 07 B3 18 CF F7 64 ED 8A 2D 3B B8 9B 6C  // .J......d..-;..l
    1EF0: 0F 0E D5 36 C3 62 5D BB 39 B0 60 C7 6C EF 21 D6  // ...6.b].9.`.l.!.
    1F00: DA DB 7B 98 B6 17 F6 10 19 41 F1 30 0A 34 69 9B  // ..{......A.0.4i.
    1F10: FF 58 C1 FF 8C 4D 5A 57 61 39 32 F3 14 2A 99 6B  // .X...MZWa92..*.k
    1F20: 78 DF FD C3 6D AC 55 58 EB CD 44 A2 F4 BE 68 ED  // x...m.UX..D...h.
    1F30: EB BA 47 1A E9 7E 86 ED 9B BD C7 21 E8 A2 88 0D  // ..G..~.....!....
    1F40: EC BD 7F 22 28 BF 88 E3 93 B6 B3 96 BE 57 D0 93  // ..."(........W..
    1F50: 66 BC 1B C1 FC EA C5 79 C9 EC 61 44 28 C1 64 27  // f......y..aD(.d'
    1F60: C3 19 36 EC 95 83 8E 32 F4 5E 0C 99 8E 2E 1F DA  // ..6....2.^......
    1F70: 18 3A 6F BE 97 15 D6 02 56 FC 19 8C 26 86 5A 9F  // .:o.....V...&.Z.
    1F80: 32 10 3E EF 1D 9F 82 56 23 84 CD F5 22 B3 C1 48  // 2.>....V#..."..H
    1F90: 17 0B 69 8C 01 7E DF 21 E4 43 F3 CB D3 42 4E C7  // ..i..~.!.C...BN.
    1FA0: 6B 77 8A 6F 1E 61 27 D9 11 88 43 B3 21 65 F8 E6  // kw.o.a'...C.!e..
    1FB0: 38 0B 0F AA 41 AF FE B5 0A 93 9B 6B E7 A3 CE D0  // 8...A......k....
    1FC0: 89 BA 82 27 2D C3 9D D6 18 42 56 6C 7A 25 AD BF  // ...'-....BVlz%..
    1FD0: 2A 34 C5 DD E7 A9 41 DB 49 13 DC E6 2E 71 0F 1D  // *4....A.I....q..
    1FE0: 3F 21 6D 75 A2 EC 6B F1 70 68 64 30 F4 D4 C8 F3  // ?!mu..k.phd0....
    1FF0: 06 00 00 00 18 F4 A9 F4 28 0C 00 00 00 00 00 00  // ........(.......
    2000: 24 46 53 53 3F FF FF FF FF FF FF FF FF FF FF FF  // $FSS?...........
    2010: FF FF FF FF FF FF FF FF FF FF FF FF FF FF FF FF  // ................
    2020: FF FF FF FF FF FF                                // ......
