/*
 * Intel ACPI Component Architecture
 * AML/ASL+ Disassembler version 20251212 (64-bit version)
 * Copyright (c) 2000 - 2025 Intel Corporation
 * 
 * Disassembly of NHLT.aml
 *
 * ACPI Data Table [NHLT]
 *
 * Format: [HexOffset DecimalOffset ByteLength]  FieldName : FieldValue (in hex)
 */

[000h 0000 004h]                   Signature : "NHLT"    [Non HD Audio Link Table]
[004h 0004 004h]                Table Length : 0000121B
[008h 0008 001h]                    Revision : 00
[009h 0009 001h]                    Checksum : 4E
[00Ah 0010 006h]                      Oem ID : "HONOR"
[010h 0016 008h]                Oem Table ID : "PTL"
[018h 0024 004h]                Oem Revision : 00000002
[01Ch 0028 004h]             Asl Compiler ID : "ACPI"
[020h 0032 004h]       Asl Compiler Revision : 00040000


Raw Table Data: Length 4635 (0x121B)

    0000: 4E 48 4C 54 1B 12 00 00 00 4E 48 4F 4E 4F 52 00  // NHLT.....NHONOR.
    0010: 50 54 4C 00 00 00 00 00 02 00 00 00 41 43 50 49  // PTL.........ACPI
    0020: 00 00 04 00 03 E0 0C 00 00 02 00 86 80 20 AE 01  // ............. ..
    0030: 00 E7 1E 9D 20 00 01 00 03 00 00 00 00 01 0D 01  // .... ...........
    0040: FE FF 04 00 80 BB 00 00 00 B8 0B 00 10 00 20 00  // .............. .
    0050: 16 00 18 00 33 00 00 00 01 00 00 00 00 00 10 00  // ....3...........
    0060: 80 00 00 AA 00 38 9B 71 98 0C 00 00 01 00 00 00  // .....8.q........
    0070: 10 32 FF FF 10 32 FF FF FF FF FF FF FF FF FF FF  // .2...2..........
    0080: 03 00 00 00 03 00 00 00 44 08 19 00 44 08 19 00  // ........D...D...
    0090: 03 00 00 00 01 00 00 00 00 18 00 0B 00 00 00 00  // ................
    00A0: 03 0E 00 00 00 00 00 00 00 00 00 00 00 00 00 00  // ................
    00B0: 00 00 00 00 31 00 00 00 7E 00 01 00 00 00 00 00  // ....1...~.......
    00C0: 00 00 00 00 00 00 00 00 00 00 00 00 00 00 00 00  // ................
    00D0: 00 00 00 00 31 00 00 00 F6 02 05 00 00 00 00 00  // ....1...........
    00E0: 00 00 00 00 00 00 00 00 00 00 00 00 00 00 00 00  // ................
    00F0: 00 00 00 00 0A 00 00 00 D9 00 00 00 5E 03 00 00  // ............^...
    0100: D5 06 00 00 AF 07 00 00 18 03 00 00 39 FC 0F 00  // ............9...
    0110: 9B FA 0F 00 60 00 00 00 81 05 00 00 1D 02 00 00  // ....`...........
    0120: 0F FB 0F 00 DA FB 0F 00 1B 04 00 00 4E 06 00 00  // ............N...
    0130: 8C FD 0F 00 D1 F7 0F 00 FE FF 0F 00 75 09 00 00  // ............u...
    0140: 0B 03 00 00 DA F5 0F 00 23 F9 0F 00 BA 09 00 00  // ........#.......
    0150: 2B 0B 00 00 24 F8 0F 00 76 F0 0F 00 5A 04 00 00  // +...$...v...Z...
    0160: 85 13 00 00 FA 00 00 00 9F E9 0F 00 14 F8 0F 00  // ................
    0170: 96 17 00 00 48 10 00 00 8F E9 0F 00 7A E6 0F 00  // ....H.......z...
    0180: 64 12 00 00 F5 22 00 00 12 F5 0F 00 71 D4 0F 00  // d...."......q...
    0190: F0 FF 0F 00 6F 32 00 00 DE 0E 00 00 FD C9 0F 00  // ....o2..........
    01A0: 1B DF 0F 00 47 35 00 00 DF 35 00 00 70 D1 0F 00  // ....G5...5..p...
    01B0: 41 B3 0F 00 7F 20 00 00 85 64 00 00 D4 F6 0F 00  // A.... ...d......
    01C0: 59 84 0F 00 48 E6 0F 00 89 90 00 00 9C 4C 00 00  // Y...H........L..
    01D0: FB 5F 0F 00 B0 68 0F 00 0C A5 00 00 5C 0E 01 00  // ._...h......\...
    01E0: F7 70 0F 00 79 0D 0E 00 97 03 00 00 3F 81 04 00  // .p..y.......?...
    01F0: F9 E8 06 00 3F 81 04 00 97 03 00 00 79 0D 0E 00  // ....?.......y...
    0200: F7 70 0F 00 5C 0E 01 00 0C A5 00 00 B0 68 0F 00  // .p..\........h..
    0210: FB 5F 0F 00 9C 4C 00 00 89 90 00 00 48 E6 0F 00  // ._...L......H...
    0220: 59 84 0F 00 D4 F6 0F 00 85 64 00 00 7F 20 00 00  // Y........d... ..
    0230: 41 B3 0F 00 70 D1 0F 00 DF 35 00 00 47 35 00 00  // A...p....5..G5..
    0240: 1B DF 0F 00 FD C9 0F 00 DE 0E 00 00 6F 32 00 00  // ............o2..
    0250: F0 FF 0F 00 71 D4 0F 00 12 F5 0F 00 F5 22 00 00  // ....q........"..
    0260: 64 12 00 00 7A E6 0F 00 8F E9 0F 00 48 10 00 00  // d...z.......H...
    0270: 96 17 00 00 14 F8 0F 00 9F E9 0F 00 FA 00 00 00  // ................
    0280: 85 13 00 00 5A 04 00 00 76 F0 0F 00 24 F8 0F 00  // ....Z...v...$...
    0290: 2B 0B 00 00 BA 09 00 00 23 F9 0F 00 DA F5 0F 00  // +.......#.......
    02A0: 0B 03 00 00 75 09 00 00 FE FF 0F 00 D1 F7 0F 00  // ....u...........
    02B0: 8C FD 0F 00 4E 06 00 00 1B 04 00 00 DA FB 0F 00  // ....N...........
    02C0: 0F FB 0F 00 1D 02 00 00 81 05 00 00 60 00 00 00  // ............`...
    02D0: 9B FA 0F 00 39 FC 0F 00 18 03 00 00 AF 07 00 00  // ....9...........
    02E0: D5 06 00 00 5E 03 00 00 D9 00 00 00 0A 00 00 00  // ....^...........
    02F0: 5E 00 00 00 BD 00 00 00 5F 01 00 00 38 02 00 00  // ^......._...8...
    0300: 3E 03 00 00 58 04 00 00 62 05 00 00 2E 06 00 00  // >...X...b.......
    0310: 8B 06 00 00 4F 06 00 00 64 05 00 00 C8 03 00 00  // ....O...d.......
    0320: 9D 01 00 00 21 FF 0F 00 AC FC 0F 00 9F FA 0F 00  // ....!...........
    0330: 5B F9 0F 00 25 F9 0F 00 19 FA 0F 00 1F FC 0F 00  // [...%...........
    0340: EA FE 0F 00 FB 01 00 00 BC 04 00 00 96 06 00 00  // ................
    0350: 14 07 00 00 FB 05 00 00 60 03 00 00 A7 FF 0F 00  // ........`.......
    0360: 7F FB 0F 00 BD F7 0F 00 36 F5 0F 00 92 F4 0F 00  // ........6.......
    0370: 23 F6 0F 00 CC F9 0F 00 F9 FE 0F 00 B6 04 00 00  // #...............
    0380: D7 09 00 00 35 0D 00 00 EF 0D 00 00 9C 0B 00 00  // ....5...........
    0390: 75 06 00 00 52 FF 0F 00 8D F7 0F 00 C1 F0 0F 00  // u...R...........
    03A0: 7C EC 0F 00 E3 EB 0F 00 6A EF 0F 00 AB F6 0F 00  // |.......j.......
    03B0: 6B 00 00 00 C7 0A 00 00 93 13 00 00 C6 18 00 00  // k...............
    03C0: F5 18 00 00 A9 13 00 00 92 09 00 00 78 FC 0F 00  // ............x...
    03D0: F0 EE 0F 00 DE E3 0F 00 D9 DD 0F 00 96 DE 0F 00  // ................
    03E0: 7A E6 0F 00 61 F4 0F 00 C5 05 00 00 2A 17 00 00  // z...a.......*...
    03F0: CD 24 00 00 6F 2B 00 00 13 29 00 00 8A 1D 00 00  // .$..o+...)......
    0400: 9B 0A 00 00 CE F3 0F 00 C6 DD 0F 00 59 CD 0F 00  // ............Y...
    0410: 85 C6 0F 00 84 CB 0F 00 2A DC 0F 00 C2 F5 0F 00  // ........*.......
    0420: 70 13 00 00 16 2F 00 00 8B 42 00 00 F3 48 00 00  // p..../...B...H..
    0430: E6 3F 00 00 25 28 00 00 AE 05 00 00 27 DF 0F 00  // .?..%(......'...
    0440: 99 BC 0F 00 D9 A5 0F 00 CD A0 0F 00 FF AF 0F 00  // ................
    0450: CE D1 0F 00 6C 00 00 00 CA 32 00 00 47 5E 00 00  // ....l....2..G^..
    0460: D3 78 00 00 29 7B 00 00 9D 62 00 00 13 32 00 00  // .x..){...b...2..
    0470: E3 F1 0F 00 8A AE 0F 00 66 76 0F 00 D2 56 0F 00  // ........fv...V..
    0480: 34 59 0F 00 9D 80 0F 00 80 C8 0F 00 DB 24 00 00  // 4Y...........$..
    0490: F1 83 00 00 5E D1 00 00 02 FA 00 00 1A F0 00 00  // ....^...........
    04A0: B2 AE 00 00 C2 3B 00 00 6B A8 0F 00 1C 0F 0F 00  // .....;..k.......
    04B0: D7 8F 0E 00 18 4B 0E 00 2C 5C 0E 00 00 D4 0E 00  // .....K..,\......
    04C0: 48 B5 0F 00 C7 F2 00 00 2A 70 02 00 55 05 04 00  // H.......*p..U...
    04D0: D3 83 05 00 75 BD 06 00 25 8B 07 00 C3 D2 07 00  // ....u...%.......
    04E0: 25 8B 07 00 75 BD 06 00 D3 83 05 00 55 05 04 00  // %...u.......U...
    04F0: 2A 70 02 00 C7 F2 00 00 48 B5 0F 00 00 D4 0E 00  // *p......H.......
    0500: 2C 5C 0E 00 18 4B 0E 00 D7 8F 0E 00 1C 0F 0F 00  // ,\...K..........
    0510: 6B A8 0F 00 C2 3B 00 00 B2 AE 00 00 1A F0 00 00  // k....;..........
    0520: 02 FA 00 00 5E D1 00 00 F1 83 00 00 DB 24 00 00  // ....^........$..
    0530: 80 C8 0F 00 9D 80 0F 00 34 59 0F 00 D2 56 0F 00  // ........4Y...V..
    0540: 66 76 0F 00 8A AE 0F 00 E3 F1 0F 00 13 32 00 00  // fv...........2..
    0550: 9D 62 00 00 29 7B 00 00 D3 78 00 00 47 5E 00 00  // .b..){...x..G^..
    0560: CA 32 00 00 6C 00 00 00 CE D1 0F 00 FF AF 0F 00  // .2..l...........
    0570: CD A0 0F 00 D9 A5 0F 00 99 BC 0F 00 27 DF 0F 00  // ............'...
    0580: AE 05 00 00 25 28 00 00 E6 3F 00 00 F3 48 00 00  // ....%(...?...H..
    0590: 8B 42 00 00 16 2F 00 00 70 13 00 00 C2 F5 0F 00  // .B.../..p.......
    05A0: 2A DC 0F 00 84 CB 0F 00 85 C6 0F 00 59 CD 0F 00  // *...........Y...
    05B0: C6 DD 0F 00 CE F3 0F 00 9B 0A 00 00 8A 1D 00 00  // ................
    05C0: 13 29 00 00 6F 2B 00 00 CD 24 00 00 2A 17 00 00  // .)..o+...$..*...
    05D0: C5 05 00 00 61 F4 0F 00 7A E6 0F 00 96 DE 0F 00  // ....a...z.......
    05E0: D9 DD 0F 00 DE E3 0F 00 F0 EE 0F 00 78 FC 0F 00  // ............x...
    05F0: 92 09 00 00 A9 13 00 00 F5 18 00 00 C6 18 00 00  // ................
    0600: 93 13 00 00 C7 0A 00 00 6B 00 00 00 AB F6 0F 00  // ........k.......
    0610: 6A EF 0F 00 E3 EB 0F 00 7C EC 0F 00 C1 F0 0F 00  // j.......|.......
    0620: 8D F7 0F 00 52 FF 0F 00 75 06 00 00 9C 0B 00 00  // ....R...u.......
    0630: EF 0D 00 00 35 0D 00 00 D7 09 00 00 B6 04 00 00  // ....5...........
    0640: F9 FE 0F 00 CC F9 0F 00 23 F6 0F 00 92 F4 0F 00  // ........#.......
    0650: 36 F5 0F 00 BD F7 0F 00 7F FB 0F 00 A7 FF 0F 00  // 6...............
    0660: 60 03 00 00 FB 05 00 00 14 07 00 00 96 06 00 00  // `...............
    0670: BC 04 00 00 FB 01 00 00 EA FE 0F 00 1F FC 0F 00  // ................
    0680: 19 FA 0F 00 25 F9 0F 00 5B F9 0F 00 9F FA 0F 00  // ....%...[.......
    0690: AC FC 0F 00 21 FF 0F 00 9D 01 00 00 C8 03 00 00  // ....!...........
    06A0: 64 05 00 00 4F 06 00 00 8B 06 00 00 2E 06 00 00  // d...O...........
    06B0: 62 05 00 00 58 04 00 00 3E 03 00 00 38 02 00 00  // b...X...>...8...
    06C0: 5F 01 00 00 BD 00 00 00 5E 00 00 00 01 00 00 00  // _.......^.......
    06D0: 00 18 00 0B 00 00 00 00 03 0E 00 00 00 00 00 00  // ................
    06E0: 00 00 00 00 00 00 00 00 00 00 00 00 31 00 00 00  // ............1...
    06F0: 7E 00 01 00 00 00 00 00 00 00 00 00 00 00 00 00  // ~...............
    0700: 00 00 00 00 00 00 00 00 00 00 00 00 31 00 00 00  // ............1...
    0710: F6 02 05 00 00 00 00 00 00 00 00 00 00 00 00 00  // ................
    0720: 00 00 00 00 00 00 00 00 00 00 00 00 0A 00 00 00  // ................
    0730: D9 00 00 00 5E 03 00 00 D5 06 00 00 AF 07 00 00  // ....^...........
    0740: 18 03 00 00 39 FC 0F 00 9B FA 0F 00 60 00 00 00  // ....9.......`...
    0750: 81 05 00 00 1D 02 00 00 0F FB 0F 00 DA FB 0F 00  // ................
    0760: 1B 04 00 00 4E 06 00 00 8C FD 0F 00 D1 F7 0F 00  // ....N...........
    0770: FE FF 0F 00 75 09 00 00 0B 03 00 00 DA F5 0F 00  // ....u...........
    0780: 23 F9 0F 00 BA 09 00 00 2B 0B 00 00 24 F8 0F 00  // #.......+...$...
    0790: 76 F0 0F 00 5A 04 00 00 85 13 00 00 FA 00 00 00  // v...Z...........
    07A0: 9F E9 0F 00 14 F8 0F 00 96 17 00 00 48 10 00 00  // ............H...
    07B0: 8F E9 0F 00 7A E6 0F 00 64 12 00 00 F5 22 00 00  // ....z...d...."..
    07C0: 12 F5 0F 00 71 D4 0F 00 F0 FF 0F 00 6F 32 00 00  // ....q.......o2..
    07D0: DE 0E 00 00 FD C9 0F 00 1B DF 0F 00 47 35 00 00  // ............G5..
    07E0: DF 35 00 00 70 D1 0F 00 41 B3 0F 00 7F 20 00 00  // .5..p...A.... ..
    07F0: 85 64 00 00 D4 F6 0F 00 59 84 0F 00 48 E6 0F 00  // .d......Y...H...
    0800: 89 90 00 00 9C 4C 00 00 FB 5F 0F 00 B0 68 0F 00  // .....L..._...h..
    0810: 0C A5 00 00 5C 0E 01 00 F7 70 0F 00 79 0D 0E 00  // ....\....p..y...
    0820: 97 03 00 00 3F 81 04 00 F9 E8 06 00 3F 81 04 00  // ....?.......?...
    0830: 97 03 00 00 79 0D 0E 00 F7 70 0F 00 5C 0E 01 00  // ....y....p..\...
    0840: 0C A5 00 00 B0 68 0F 00 FB 5F 0F 00 9C 4C 00 00  // .....h..._...L..
    0850: 89 90 00 00 48 E6 0F 00 59 84 0F 00 D4 F6 0F 00  // ....H...Y.......
    0860: 85 64 00 00 7F 20 00 00 41 B3 0F 00 70 D1 0F 00  // .d... ..A...p...
    0870: DF 35 00 00 47 35 00 00 1B DF 0F 00 FD C9 0F 00  // .5..G5..........
    0880: DE 0E 00 00 6F 32 00 00 F0 FF 0F 00 71 D4 0F 00  // ....o2......q...
    0890: 12 F5 0F 00 F5 22 00 00 64 12 00 00 7A E6 0F 00  // ....."..d...z...
    08A0: 8F E9 0F 00 48 10 00 00 96 17 00 00 14 F8 0F 00  // ....H...........
    08B0: 9F E9 0F 00 FA 00 00 00 85 13 00 00 5A 04 00 00  // ............Z...
    08C0: 76 F0 0F 00 24 F8 0F 00 2B 0B 00 00 BA 09 00 00  // v...$...+.......
    08D0: 23 F9 0F 00 DA F5 0F 00 0B 03 00 00 75 09 00 00  // #...........u...
    08E0: FE FF 0F 00 D1 F7 0F 00 8C FD 0F 00 4E 06 00 00  // ............N...
    08F0: 1B 04 00 00 DA FB 0F 00 0F FB 0F 00 1D 02 00 00  // ................
    0900: 81 05 00 00 60 00 00 00 9B FA 0F 00 39 FC 0F 00  // ....`.......9...
    0910: 18 03 00 00 AF 07 00 00 D5 06 00 00 5E 03 00 00  // ............^...
    0920: D9 00 00 00 0A 00 00 00 5E 00 00 00 BD 00 00 00  // ........^.......
    0930: 5F 01 00 00 38 02 00 00 3E 03 00 00 58 04 00 00  // _...8...>...X...
    0940: 62 05 00 00 2E 06 00 00 8B 06 00 00 4F 06 00 00  // b...........O...
    0950: 64 05 00 00 C8 03 00 00 9D 01 00 00 21 FF 0F 00  // d...........!...
    0960: AC FC 0F 00 9F FA 0F 00 5B F9 0F 00 25 F9 0F 00  // ........[...%...
    0970: 19 FA 0F 00 1F FC 0F 00 EA FE 0F 00 FB 01 00 00  // ................
    0980: BC 04 00 00 96 06 00 00 14 07 00 00 FB 05 00 00  // ................
    0990: 60 03 00 00 A7 FF 0F 00 7F FB 0F 00 BD F7 0F 00  // `...............
    09A0: 36 F5 0F 00 92 F4 0F 00 23 F6 0F 00 CC F9 0F 00  // 6.......#.......
    09B0: F9 FE 0F 00 B6 04 00 00 D7 09 00 00 35 0D 00 00  // ............5...
    09C0: EF 0D 00 00 9C 0B 00 00 75 06 00 00 52 FF 0F 00  // ........u...R...
    09D0: 8D F7 0F 00 C1 F0 0F 00 7C EC 0F 00 E3 EB 0F 00  // ........|.......
    09E0: 6A EF 0F 00 AB F6 0F 00 6B 00 00 00 C7 0A 00 00  // j.......k.......
    09F0: 93 13 00 00 C6 18 00 00 F5 18 00 00 A9 13 00 00  // ................
    0A00: 92 09 00 00 78 FC 0F 00 F0 EE 0F 00 DE E3 0F 00  // ....x...........
    0A10: D9 DD 0F 00 96 DE 0F 00 7A E6 0F 00 61 F4 0F 00  // ........z...a...
    0A20: C5 05 00 00 2A 17 00 00 CD 24 00 00 6F 2B 00 00  // ....*....$..o+..
    0A30: 13 29 00 00 8A 1D 00 00 9B 0A 00 00 CE F3 0F 00  // .)..............
    0A40: C6 DD 0F 00 59 CD 0F 00 85 C6 0F 00 84 CB 0F 00  // ....Y...........
    0A50: 2A DC 0F 00 C2 F5 0F 00 70 13 00 00 16 2F 00 00  // *.......p..../..
    0A60: 8B 42 00 00 F3 48 00 00 E6 3F 00 00 25 28 00 00  // .B...H...?..%(..
    0A70: AE 05 00 00 27 DF 0F 00 99 BC 0F 00 D9 A5 0F 00  // ....'...........
    0A80: CD A0 0F 00 FF AF 0F 00 CE D1 0F 00 6C 00 00 00  // ............l...
    0A90: CA 32 00 00 47 5E 00 00 D3 78 00 00 29 7B 00 00  // .2..G^...x..){..
    0AA0: 9D 62 00 00 13 32 00 00 E3 F1 0F 00 8A AE 0F 00  // .b...2..........
    0AB0: 66 76 0F 00 D2 56 0F 00 34 59 0F 00 9D 80 0F 00  // fv...V..4Y......
    0AC0: 80 C8 0F 00 DB 24 00 00 F1 83 00 00 5E D1 00 00  // .....$......^...
    0AD0: 02 FA 00 00 1A F0 00 00 B2 AE 00 00 C2 3B 00 00  // .............;..
    0AE0: 6B A8 0F 00 1C 0F 0F 00 D7 8F 0E 00 18 4B 0E 00  // k............K..
    0AF0: 2C 5C 0E 00 00 D4 0E 00 48 B5 0F 00 C7 F2 00 00  // ,\......H.......
    0B00: 2A 70 02 00 55 05 04 00 D3 83 05 00 75 BD 06 00  // *p..U.......u...
    0B10: 25 8B 07 00 C3 D2 07 00 25 8B 07 00 75 BD 06 00  // %.......%...u...
    0B20: D3 83 05 00 55 05 04 00 2A 70 02 00 C7 F2 00 00  // ....U...*p......
    0B30: 48 B5 0F 00 00 D4 0E 00 2C 5C 0E 00 18 4B 0E 00  // H.......,\...K..
    0B40: D7 8F 0E 00 1C 0F 0F 00 6B A8 0F 00 C2 3B 00 00  // ........k....;..
    0B50: B2 AE 00 00 1A F0 00 00 02 FA 00 00 5E D1 00 00  // ............^...
    0B60: F1 83 00 00 DB 24 00 00 80 C8 0F 00 9D 80 0F 00  // .....$..........
    0B70: 34 59 0F 00 D2 56 0F 00 66 76 0F 00 8A AE 0F 00  // 4Y...V..fv......
    0B80: E3 F1 0F 00 13 32 00 00 9D 62 00 00 29 7B 00 00  // .....2...b..){..
    0B90: D3 78 00 00 47 5E 00 00 CA 32 00 00 6C 00 00 00  // .x..G^...2..l...
    0BA0: CE D1 0F 00 FF AF 0F 00 CD A0 0F 00 D9 A5 0F 00  // ................
    0BB0: 99 BC 0F 00 27 DF 0F 00 AE 05 00 00 25 28 00 00  // ....'.......%(..
    0BC0: E6 3F 00 00 F3 48 00 00 8B 42 00 00 16 2F 00 00  // .?...H...B.../..
    0BD0: 70 13 00 00 C2 F5 0F 00 2A DC 0F 00 84 CB 0F 00  // p.......*.......
    0BE0: 85 C6 0F 00 59 CD 0F 00 C6 DD 0F 00 CE F3 0F 00  // ....Y...........
    0BF0: 9B 0A 00 00 8A 1D 00 00 13 29 00 00 6F 2B 00 00  // .........)..o+..
    0C00: CD 24 00 00 2A 17 00 00 C5 05 00 00 61 F4 0F 00  // .$..*.......a...
    0C10: 7A E6 0F 00 96 DE 0F 00 D9 DD 0F 00 DE E3 0F 00  // z...............
    0C20: F0 EE 0F 00 78 FC 0F 00 92 09 00 00 A9 13 00 00  // ....x...........
    0C30: F5 18 00 00 C6 18 00 00 93 13 00 00 C7 0A 00 00  // ................
    0C40: 6B 00 00 00 AB F6 0F 00 6A EF 0F 00 E3 EB 0F 00  // k.......j.......
    0C50: 7C EC 0F 00 C1 F0 0F 00 8D F7 0F 00 52 FF 0F 00  // |...........R...
    0C60: 75 06 00 00 9C 0B 00 00 EF 0D 00 00 35 0D 00 00  // u...........5...
    0C70: D7 09 00 00 B6 04 00 00 F9 FE 0F 00 CC F9 0F 00  // ................
    0C80: 23 F6 0F 00 92 F4 0F 00 36 F5 0F 00 BD F7 0F 00  // #.......6.......
    0C90: 7F FB 0F 00 A7 FF 0F 00 60 03 00 00 FB 05 00 00  // ........`.......
    0CA0: 14 07 00 00 96 06 00 00 BC 04 00 00 FB 01 00 00  // ................
    0CB0: EA FE 0F 00 1F FC 0F 00 19 FA 0F 00 25 F9 0F 00  // ............%...
    0CC0: 5B F9 0F 00 9F FA 0F 00 AC FC 0F 00 21 FF 0F 00  // [...........!...
    0CD0: 9D 01 00 00 C8 03 00 00 64 05 00 00 4F 06 00 00  // ........d...O...
    0CE0: 8B 06 00 00 2E 06 00 00 62 05 00 00 58 04 00 00  // ........b...X...
    0CF0: 3E 03 00 00 38 02 00 00 5F 01 00 00 BD 00 00 00  // >...8..._.......
    0D00: 5E 00 00 00 00 03 03 00 00 03 00 86 80 30 AE 01  // ^............0..
    0D10: 00 E7 1E 9D 20 00 00 02 02 00 00 00 00 00 03 FE  // .... ...........
    0D20: FF 01 00 40 1F 00 00 80 3E 00 00 02 00 10 00 16  // ...@....>.......
    0D30: 00 10 00 04 00 00 00 01 00 00 00 00 00 10 00 80  // ................
    0D40: 00 00 AA 00 38 9B 71 CC 00 00 00 00 00 00 00 F0  // ....8.q.........
    0D50: FF FF FF FF FF FF FF FF FF FF FF FF FF FF FF FF  // ................
    0D60: FF FF FF FF FF FF FF FF FF FF FF FF FF FF FF 3F  // ...............?
    0D70: 2B C1 80 00 00 40 D3 00 00 00 00 05 00 00 02 02  // +....@..........
    0D80: 40 00 00 00 00 00 00 00 0F 01 06 00 00 00 00 01  // @...............
    0D90: 00 00 00 00 00 00 00 00 00 00 00 00 00 00 00 00  // ................
    0DA0: 00 00 00 00 00 00 00 00 00 00 00 00 00 00 00 00  // ................
    0DB0: 00 00 00 00 00 00 00 00 00 00 00 00 00 00 00 00  // ................
    0DC0: 00 00 00 00 00 00 00 00 00 00 00 00 00 00 00 01  // ................
    0DD0: 00 00 00 00 00 00 00 00 00 00 00 00 00 00 00 00  // ................
    0DE0: 00 00 00 00 00 00 00 00 00 00 00 00 00 00 00 00  // ................
    0DF0: 00 00 00 00 00 00 00 00 00 00 00 00 00 00 00 00  // ................
    0E00: 00 00 00 00 00 00 00 00 00 00 00 00 00 00 00 01  // ................
    0E10: 00 00 00 00 00 00 00 FE FF 01 00 80 3E 00 00 00  // ............>...
    0E20: 7D 00 00 02 00 10 00 16 00 10 00 04 00 00 00 01  // }...............
    0E30: 00 00 00 00 00 10 00 80 00 00 AA 00 38 9B 71 CC  // ............8.q.
    0E40: 00 00 00 00 00 00 00 F0 FF FF FF FF FF FF FF FF  // ................
    0E50: FF FF FF FF FF FF FF FF FF FF FF FF FF FF FF FF  // ................
    0E60: FF FF FF FF FF FF FF 3F 95 C0 80 00 00 40 D3 00  // .......?.....@..
    0E70: 00 00 00 05 00 00 02 02 40 00 00 00 00 00 00 00  // ........@.......
    0E80: 0F 01 06 00 00 00 00 01 00 00 00 00 00 00 00 00  // ................
    0E90: 00 00 00 00 00 00 00 00 00 00 00 00 00 00 00 00  // ................
    0EA0: 00 00 00 00 00 00 00 00 00 00 00 00 00 00 00 00  // ................
    0EB0: 00 00 00 00 00 00 00 00 00 00 00 00 00 00 00 00  // ................
    0EC0: 00 00 00 00 00 00 00 01 00 00 00 00 00 00 00 00  // ................
    0ED0: 00 00 00 00 00 00 00 00 00 00 00 00 00 00 00 00  // ................
    0EE0: 00 00 00 00 00 00 00 00 00 00 00 00 00 00 00 00  // ................
    0EF0: 00 00 00 00 00 00 00 00 00 00 00 00 00 00 00 00  // ................
    0F00: 00 00 00 00 00 00 00 01 00 00 00 00 00 00 00 FE  // ................
    0F10: FF 02 00 80 BB 00 00 00 EE 02 00 04 00 10 00 16  // ................
    0F20: 00 10 00 03 00 00 00 01 00 00 00 00 00 10 00 80  // ................
    0F30: 00 00 AA 00 38 9B 71 CC 00 00 00 00 00 00 00 10  // ....8.q.........
    0F40: FF FF FF FF FF FF FF FF FF FF FF FF FF FF FF FF  // ................
    0F50: FF FF FF FF FF FF FF FF FF FF FF FF FF FF FF 3F  // ...............?
    0F60: 18 C0 81 00 00 70 C0 00 00 00 00 05 02 01 02 02  // .....p..........
    0F70: 40 00 00 00 00 00 00 00 0F 07 07 20 00 00 00 03  // @.......... ....
    0F80: 00 00 00 00 00 00 00 00 00 00 00 00 00 00 00 00  // ................
    0F90: 00 00 00 00 00 00 00 00 00 00 00 00 00 00 00 00  // ................
    0FA0: 00 00 00 00 00 00 00 00 00 00 00 00 00 00 00 00  // ................
    0FB0: 00 00 00 00 00 00 00 00 00 00 00 00 00 00 00 03  // ................
    0FC0: 00 00 00 00 00 00 00 00 00 00 00 00 00 00 00 00  // ................
    0FD0: 00 00 00 00 00 00 00 00 00 00 00 00 00 00 00 00  // ................
    0FE0: 00 00 00 00 00 00 00 00 00 00 00 00 00 00 00 00  // ................
    0FF0: 00 00 00 00 00 00 00 00 00 00 00 00 00 00 00 01  // ................
    1000: 00 00 00 FF 0F 00 00 00 0B 02 00 00 03 00 86 80  // ................
    1010: 30 AE 01 00 E7 1E 9D 20 00 01 02 02 00 00 00 00  // 0...... ........
    1020: 00 02 FE FF 01 00 40 1F 00 00 80 3E 00 00 02 00  // ......@....>....
    1030: 10 00 16 00 10 00 04 00 00 00 01 00 00 00 00 00  // ................
    1040: 10 00 80 00 00 AA 00 38 9B 71 CC 00 00 00 00 00  // .......8.q......
    1050: 00 00 F0 FF FF FF FF FF FF FF FF FF FF FF FF FF  // ................
    1060: FF FF FF FF FF FF FF FF FF FF FF FF FF FF FF FF  // ................
    1070: FF FF 3F 2B C1 80 00 00 40 D3 00 00 00 00 05 00  // ..?+....@.......
    1080: 00 02 02 40 00 00 00 00 00 00 00 0F 01 06 00 00  // ...@............
    1090: 00 00 01 00 00 00 00 00 00 00 00 00 00 00 00 00  // ................
    10A0: 00 00 00 00 00 00 00 00 00 00 00 00 00 00 00 00  // ................
    10B0: 00 00 00 00 00 00 00 00 00 00 00 00 00 00 00 00  // ................
    10C0: 00 00 00 00 00 00 00 00 00 00 00 00 00 00 00 00  // ................
    10D0: 00 00 01 00 00 00 00 00 00 00 00 00 00 00 00 00  // ................
    10E0: 00 00 00 00 00 00 00 00 00 00 00 00 00 00 00 00  // ................
    10F0: 00 00 00 00 00 00 00 00 00 00 00 00 00 00 00 00  // ................
    1100: 00 00 00 00 00 00 00 00 00 00 00 00 00 00 00 00  // ................
    1110: 00 00 01 00 00 00 00 00 00 00 FE FF 01 00 80 3E  // ...............>
    1120: 00 00 00 7D 00 00 02 00 10 00 16 00 10 00 04 00  // ...}............
    1130: 00 00 01 00 00 00 00 00 10 00 80 00 00 AA 00 38  // ...............8
    1140: 9B 71 CC 00 00 00 00 00 00 00 F0 FF FF FF FF FF  // .q..............
    1150: FF FF FF FF FF FF FF FF FF FF FF FF FF FF FF FF  // ................
    1160: FF FF FF FF FF FF FF FF FF FF 3F 95 C0 80 00 00  // ..........?.....
    1170: 40 D3 00 00 00 00 05 00 00 02 02 40 00 00 00 00  // @..........@....
    1180: 00 00 00 0F 01 06 00 00 00 00 01 00 00 00 00 00  // ................
    1190: 00 00 00 00 00 00 00 00 00 00 00 00 00 00 00 00  // ................
    11A0: 00 00 00 00 00 00 00 00 00 00 00 00 00 00 00 00  // ................
    11B0: 00 00 00 00 00 00 00 00 00 00 00 00 00 00 00 00  // ................
    11C0: 00 00 00 00 00 00 00 00 00 00 01 00 00 00 00 00  // ................
    11D0: 00 00 00 00 00 00 00 00 00 00 00 00 00 00 00 00  // ................
    11E0: 00 00 00 00 00 00 00 00 00 00 00 00 00 00 00 00  // ................
    11F0: 00 00 00 00 00 00 00 00 00 00 00 00 00 00 00 00  // ................
    1200: 00 00 00 00 00 00 00 00 00 00 01 00 00 00 00 00  // ................
    1210: 00 00 00 04 00 00 00 DE AD BE EF                 // ...........
